target datalayout = "e-m:e-p270:32:32-p271:32:32-p272:64:64-i64:64-i128:128-f80:128-n8:16:32:64-S128"
target triple = "x86_64-pc-linux-gnu"

%struct.AVTimecode = type { i32, i32, %struct.AVRational, i32 }
%struct.AVRational = type { i32, i32 }

@check_fps.supported_fps = internal constant [9 x i32] [i32 24, i32 25, i32 30, i32 48, i32 50, i32 60, i32 100, i32 120, i32 150], align 16
@.str.6 = private unnamed_addr constant [65 x i8] c"Valid timecode frame rate must be specified. Minimum value is 1\0A\00", align 1
@.str.7 = private unnamed_addr constant [61 x i8] c"Drop frame is only allowed with multiples of 30000/1001 FPS\0A\00", align 1
@.str.8 = private unnamed_addr constant [37 x i8] c"Using non-standard frame rate %d/%d\0A\00", align 1

; Function Attrs: nounwind uwtable
define internal i32 @check_fps(i32 noundef %0) #0 {
  %2 = alloca i32, align 4
  %3 = alloca i32, align 4
  %4 = alloca i32, align 4
  %5 = alloca i32, align 4
  store i32 %0, ptr %3, align 4, !tbaa !4
  call void @llvm.lifetime.start.p0(i64 4, ptr %4) #8
  store i32 0, ptr %4, align 4, !tbaa !4
  br label %6

6:                                                ; preds = %19, %1
  %7 = load i32, ptr %4, align 4, !tbaa !4
  %8 = sext i32 %7 to i64
  %9 = icmp ult i64 %8, 9
  br i1 %9, label %10, label %22

10:                                               ; preds = %6
  %11 = load i32, ptr %3, align 4, !tbaa !4
  %12 = load i32, ptr %4, align 4, !tbaa !4
  %13 = sext i32 %12 to i64
  %14 = getelementptr inbounds [9 x i32], ptr @check_fps.supported_fps, i64 0, i64 %13
  %15 = load i32, ptr %14, align 4, !tbaa !4
  %16 = icmp eq i32 %11, %15
  br i1 %16, label %17, label %18

17:                                               ; preds = %10
  store i32 0, ptr %2, align 4
  store i32 1, ptr %5, align 4
  br label %23

18:                                               ; preds = %10
  br label %19

19:                                               ; preds = %18
  %20 = load i32, ptr %4, align 4, !tbaa !4
  %21 = add nsw i32 %20, 1
  store i32 %21, ptr %4, align 4, !tbaa !4
  br label %6, !llvm.loop !21

22:                                               ; preds = %6
  store i32 -1, ptr %2, align 4
  store i32 1, ptr %5, align 4
  br label %23

23:                                               ; preds = %22, %17
  call void @llvm.lifetime.end.p0(i64 4, ptr %4) #8
  %24 = load i32, ptr %2, align 4
  ret i32 %24
}

; Function Attrs: nounwind uwtable
define internal i32 @check_timecode(ptr noundef %0, ptr noundef %1) #0 {
  %3 = alloca i32, align 4
  %4 = alloca ptr, align 8
  %5 = alloca ptr, align 8
  store ptr %0, ptr %4, align 8, !tbaa !8
  store ptr %1, ptr %5, align 8, !tbaa !8
  %6 = load ptr, ptr %5, align 8, !tbaa !8
  %7 = getelementptr inbounds nuw %struct.AVTimecode, ptr %6, i32 0, i32 3
  %8 = load i32, ptr %7, align 4, !tbaa !10
  %9 = icmp sle i32 %8, 0
  br i1 %9, label %10, label %12

10:                                               ; preds = %2
  %11 = load ptr, ptr %4, align 8, !tbaa !8
  call void (ptr, i32, ptr, ...) @av_log(ptr noundef %11, i32 noundef 16, ptr noundef @.str.6)
  store i32 -22, ptr %3, align 4
  br label %43

12:                                               ; preds = %2
  %13 = load ptr, ptr %5, align 8, !tbaa !8
  %14 = getelementptr inbounds nuw %struct.AVTimecode, ptr %13, i32 0, i32 1
  %15 = load i32, ptr %14, align 4, !tbaa !13
  %16 = and i32 %15, 1
  %17 = icmp ne i32 %16, 0
  br i1 %17, label %18, label %26

18:                                               ; preds = %12
  %19 = load ptr, ptr %5, align 8, !tbaa !8
  %20 = getelementptr inbounds nuw %struct.AVTimecode, ptr %19, i32 0, i32 3
  %21 = load i32, ptr %20, align 4, !tbaa !10
  %22 = urem i32 %21, 30
  %23 = icmp ne i32 %22, 0
  br i1 %23, label %24, label %26

24:                                               ; preds = %18
  %25 = load ptr, ptr %4, align 8, !tbaa !8
  call void (ptr, i32, ptr, ...) @av_log(ptr noundef %25, i32 noundef 16, ptr noundef @.str.7)
  store i32 -22, ptr %3, align 4
  br label %43

26:                                               ; preds = %18, %12
  %27 = load ptr, ptr %5, align 8, !tbaa !8
  %28 = getelementptr inbounds nuw %struct.AVTimecode, ptr %27, i32 0, i32 3
  %29 = load i32, ptr %28, align 4, !tbaa !10
  %30 = call i32 @check_fps(i32 noundef %29)
  %31 = icmp slt i32 %30, 0
  br i1 %31, label %32, label %42

32:                                               ; preds = %26
  %33 = load ptr, ptr %4, align 8, !tbaa !8
  %34 = load ptr, ptr %5, align 8, !tbaa !8
  %35 = getelementptr inbounds nuw %struct.AVTimecode, ptr %34, i32 0, i32 2
  %36 = getelementptr inbounds nuw %struct.AVRational, ptr %35, i32 0, i32 0
  %37 = load i32, ptr %36, align 4, !tbaa !24
  %38 = load ptr, ptr %5, align 8, !tbaa !8
  %39 = getelementptr inbounds nuw %struct.AVTimecode, ptr %38, i32 0, i32 2
  %40 = getelementptr inbounds nuw %struct.AVRational, ptr %39, i32 0, i32 1
  %41 = load i32, ptr %40, align 4, !tbaa !25
  call void (ptr, i32, ptr, ...) @av_log(ptr noundef %33, i32 noundef 24, ptr noundef @.str.8, i32 noundef %37, i32 noundef %41)
  br label %42

42:                                               ; preds = %32, %26
  store i32 0, ptr %3, align 4
  br label %43

43:                                               ; preds = %42, %24, %10
  %44 = load i32, ptr %3, align 4
  ret i32 %44
}

; Function Attrs: nounwind uwtable
define internal i32 @fps_from_frame_rate(i64 %0) #0 {
  %2 = alloca i32, align 4
  %3 = alloca %struct.AVRational, align 4
  store i64 %0, ptr %3, align 4
  %4 = getelementptr inbounds nuw %struct.AVRational, ptr %3, i32 0, i32 1
  %5 = load i32, ptr %4, align 4, !tbaa !16
  %6 = icmp ne i32 %5, 0
  br i1 %6, label %7, label %11

7:                                                ; preds = %1
  %8 = getelementptr inbounds nuw %struct.AVRational, ptr %3, i32 0, i32 0
  %9 = load i32, ptr %8, align 4, !tbaa !15
  %10 = icmp ne i32 %9, 0
  br i1 %10, label %12, label %11

11:                                               ; preds = %7, %1
  store i32 -1, ptr %2, align 4
  br label %26

12:                                               ; preds = %7
  %13 = getelementptr inbounds nuw %struct.AVRational, ptr %3, i32 0, i32 0
  %14 = load i32, ptr %13, align 4, !tbaa !15
  %15 = sext i32 %14 to i64
  %16 = getelementptr inbounds nuw %struct.AVRational, ptr %3, i32 0, i32 1
  %17 = load i32, ptr %16, align 4, !tbaa !16
  %18 = sext i32 %17 to i64
  %19 = sdiv i64 %18, 2
  %20 = add nsw i64 %15, %19
  %21 = getelementptr inbounds nuw %struct.AVRational, ptr %3, i32 0, i32 1
  %22 = load i32, ptr %21, align 4, !tbaa !16
  %23 = sext i32 %22 to i64
  %24 = sdiv i64 %20, %23
  %25 = trunc i64 %24 to i32
  store i32 %25, ptr %2, align 4
  br label %26

26:                                               ; preds = %12, %11
  %27 = load i32, ptr %2, align 4
  ret i32 %27
}

; Function Attrs: nounwind uwtable
define i32 @av_timecode_init(ptr noundef %0, i64 %1, i32 noundef %2, i32 noundef %3, ptr noundef %4) #0 {
  %6 = alloca %struct.AVRational, align 4
  %7 = alloca ptr, align 8
  %8 = alloca i32, align 4
  %9 = alloca i32, align 4
  %10 = alloca ptr, align 8
  store i64 %1, ptr %6, align 4
  store ptr %0, ptr %7, align 8, !tbaa !8
  store i32 %2, ptr %8, align 4, !tbaa !4
  store i32 %3, ptr %9, align 4, !tbaa !4
  store ptr %4, ptr %10, align 8, !tbaa !8
  %11 = load ptr, ptr %7, align 8, !tbaa !8
  call void @llvm.memset.p0.i64(ptr align 4 %11, i8 0, i64 20, i1 false)
  %12 = load i32, ptr %9, align 4, !tbaa !4
  %13 = load ptr, ptr %7, align 8, !tbaa !8
  %14 = getelementptr inbounds nuw %struct.AVTimecode, ptr %13, i32 0, i32 0
  store i32 %12, ptr %14, align 4, !tbaa !14
  %15 = load i32, ptr %8, align 4, !tbaa !4
  %16 = load ptr, ptr %7, align 8, !tbaa !8
  %17 = getelementptr inbounds nuw %struct.AVTimecode, ptr %16, i32 0, i32 1
  store i32 %15, ptr %17, align 4, !tbaa !13
  %18 = load ptr, ptr %7, align 8, !tbaa !8
  %19 = getelementptr inbounds nuw %struct.AVTimecode, ptr %18, i32 0, i32 2
  call void @llvm.memcpy.p0.p0.i64(ptr align 4 %19, ptr align 4 %6, i64 8, i1 false), !tbaa.struct !23
  %20 = load i64, ptr %6, align 4
  %21 = call i32 @fps_from_frame_rate(i64 %20)
  %22 = load ptr, ptr %7, align 8, !tbaa !8
  %23 = getelementptr inbounds nuw %struct.AVTimecode, ptr %22, i32 0, i32 3
  store i32 %21, ptr %23, align 4, !tbaa !10
  %24 = load ptr, ptr %10, align 8, !tbaa !8
  %25 = load ptr, ptr %7, align 8, !tbaa !8
  %26 = call i32 @check_timecode(ptr noundef %24, ptr noundef %25)
  ret i32 %26
}