; Function Attrs: nounwind uwtable
define range(i32 -22, 1) i32 @av_timecode_init(ptr noundef writeonly captures(none) initializes((0, 20)) %0, i64 %1, i32 noundef %2, i32 noundef %3, ptr noundef %4) local_unnamed_addr #5 {
  %6 = getelementptr inbounds nuw i8, ptr %0, i64 16
  store i32 0, ptr %6, align 4
  store i32 %3, ptr %0, align 4, !tbaa !11
  %7 = getelementptr inbounds nuw i8, ptr %0, i64 4
  store i32 %2, ptr %7, align 4, !tbaa !10
  %8 = getelementptr inbounds nuw i8, ptr %0, i64 8
  store i64 %1, ptr %8, align 4
  %9 = icmp ugt i64 %1, 4294967295
  %10 = and i64 %1, 4294967295
  %11 = icmp ne i64 %10, 0
  %or.cond.i = and i1 %9, %11
  %12 = trunc i64 %1 to i32
  %13 = lshr i64 %1, 32
  %14 = trunc nuw i64 %13 to i32
  br i1 %or.cond.i, label %fps_from_frame_rate.exit, label %fps_from_frame_rate.exit.thread

fps_from_frame_rate.exit.thread:                  ; preds = %5
  %15 = getelementptr inbounds nuw i8, ptr %0, i64 16
  store i32 -1, ptr %15, align 4, !tbaa !4
  br label %24

fps_from_frame_rate.exit:                         ; preds = %5
  %sext.i = shl i64 %1, 32
  %16 = ashr exact i64 %sext.i, 32
  %17 = ashr i64 %1, 32
  %.lhs.trunc.i = trunc nsw i64 %17 to i32
  %18 = sdiv i32 %.lhs.trunc.i, 2
  %.sext.i = sext i32 %18 to i64
  %19 = add nsw i64 %16, %.sext.i
  %20 = sdiv i64 %19, %17
  %21 = trunc i64 %20 to i32
  %22 = getelementptr inbounds nuw i8, ptr %0, i64 16
  store i32 %21, ptr %22, align 4, !tbaa !4
  %23 = icmp slt i32 %21, 1
  br i1 %23, label %24, label %25

24:                                               ; preds = %fps_from_frame_rate.exit.thread, %fps_from_frame_rate.exit
  tail call void (ptr, i32, ptr, ...) @av_log(ptr noundef %4, i32 noundef 16, ptr noundef nonnull @.str.6) #10
  br label %check_timecode.exit

25:                                               ; preds = %fps_from_frame_rate.exit
  %26 = and i32 %2, 1
  %.not.i = icmp eq i32 %26, 0
  %27 = urem i32 %21, 30
  %.not10.i = icmp eq i32 %27, 0
  %or.cond.i8 = or i1 %.not.i, %.not10.i
  br i1 %or.cond.i8, label %.preheader.i, label %28

28:                                               ; preds = %25
  tail call void (ptr, i32, ptr, ...) @av_log(ptr noundef %4, i32 noundef 16, ptr noundef nonnull @.str.7) #10
  br label %check_timecode.exit

29:                                               ; preds = %.preheader.i
  %indvars.iv.next.i.i = add nuw nsw i64 %indvars.iv.i.i, 1
  %exitcond.not.i.i = icmp eq i64 %indvars.iv.next.i.i, 9
  br i1 %exitcond.not.i.i, label %33, label %.preheader.i, !llvm.loop !13

.preheader.i:                                     ; preds = %25, %29
  %indvars.iv.i.i = phi i64 [ %indvars.iv.next.i.i, %29 ], [ 0, %25 ]
  %30 = getelementptr inbounds nuw [9 x i32], ptr @check_fps.supported_fps, i64 0, i64 %indvars.iv.i.i
  %31 = load i32, ptr %30, align 4, !tbaa !12
  %32 = icmp eq i32 %31, %21
  br i1 %32, label %check_timecode.exit, label %29

33:                                               ; preds = %29
  tail call void (ptr, i32, ptr, ...) @av_log(ptr noundef %4, i32 noundef 24, ptr noundef nonnull @.str.8, i32 noundef %12, i32 noundef %14) #10
  br label %check_timecode.exit

check_timecode.exit:                              ; preds = %.preheader.i, %24, %28, %33
  %.0.i9 = phi i32 [ -22, %24 ], [ -22, %28 ], [ 0, %33 ], [ 0, %.preheader.i ]
  ret i32 %.0.i9
}